target datalayout = "e-m:e-p270:32:32-p271:32:32-p272:64:64-i64:64-i128:128-f80:128-n8:16:32:64-S128"
target triple = "x86_64-pc-linux-gnu"

%struct.SDL_AtomicInt = type { i32 }
%struct.SDL_AudioDevice = type { ptr, ptr, %struct.SDL_AtomicInt, ptr, ptr, ptr, ptr, ptr, ptr, ptr, i32, ptr, %struct.SDL_AudioSpec, i32, ptr, %struct.SDL_AudioSpec, i32, i32, %struct.SDL_AtomicInt, %struct.SDL_AtomicInt, i8, i8, ptr, ptr, ptr, i32, ptr, i8, ptr, ptr }
%struct.SDL_AudioSpec = type { i32, i32, i32 }
%struct.SDL_PrivateAudioData = type { ptr, ptr }

@ALSA_snd_pcm_recover = internal global ptr null, align 8
@ALSA_snd_strerror = internal global ptr null, align 8
@ALSA_snd_pcm_wait = internal global ptr null, align 8
@.str.118 = private unnamed_addr constant [46 x i8] c"ALSA: snd_pcm_wait failed (unrecoverable): %s\00", align 1

; Function Attrs: nounwind uwtable
define internal zeroext i1 @ALSA_WaitDevice(ptr noundef %0) #0 {
  %2 = alloca i1, align 1
  %3 = alloca ptr, align 8
  %4 = alloca i32, align 4
  %5 = alloca i32, align 4
  %6 = alloca i32, align 4
  %7 = alloca i32, align 4
  %8 = alloca i32, align 4
  store ptr %0, ptr %3, align 8
  call void @llvm.lifetime.start.p0(i64 4, ptr %4) #7
  %9 = load ptr, ptr %3, align 8
  %10 = getelementptr inbounds nuw %struct.SDL_AudioDevice, ptr %9, i32 0, i32 16
  %11 = load i32, ptr %10, align 4
  %12 = sext i32 %11 to i64
  %13 = mul i64 %12, 1000
  %14 = load ptr, ptr %3, align 8
  %15 = getelementptr inbounds nuw %struct.SDL_AudioDevice, ptr %14, i32 0, i32 12
  %16 = getelementptr inbounds nuw %struct.SDL_AudioSpec, ptr %15, i32 0, i32 2
  %17 = load i32, ptr %16, align 8
  %18 = sext i32 %17 to i64
  %19 = udiv i64 %13, %18
  %20 = trunc i64 %19 to i32
  store i32 %20, ptr %4, align 4
  call void @llvm.lifetime.start.p0(i64 4, ptr %5) #7
  %21 = load i32, ptr %4, align 4
  %22 = icmp sgt i32 %21, 10
  br i1 %22, label %23, label %25

23:                                               ; preds = %1
  %24 = load i32, ptr %4, align 4
  br label %26

25:                                               ; preds = %1
  br label %26

26:                                               ; preds = %25, %23
  %27 = phi i32 [ %24, %23 ], [ 10, %25 ]
  store i32 %27, ptr %5, align 4
  br label %28

28:                                               ; preds = %72, %70, %26
  %29 = load ptr, ptr %3, align 8
  %30 = getelementptr inbounds nuw %struct.SDL_AudioDevice, ptr %29, i32 0, i32 18
  %31 = call i32 @SDL_GetAtomicInt_REAL(ptr noundef %30)
  %32 = icmp ne i32 %31, 0
  %33 = xor i1 %32, true
  br i1 %33, label %34, label %73

34:                                               ; preds = %28
  call void @llvm.lifetime.start.p0(i64 4, ptr %6) #7
  %35 = load ptr, ptr @ALSA_snd_pcm_wait, align 8
  %36 = load ptr, ptr %3, align 8
  %37 = getelementptr inbounds nuw %struct.SDL_AudioDevice, ptr %36, i32 0, i32 28
  %38 = load ptr, ptr %37, align 8
  %39 = getelementptr inbounds nuw %struct.SDL_PrivateAudioData, ptr %38, i32 0, i32 0
  %40 = load ptr, ptr %39, align 8
  %41 = load i32, ptr %5, align 4
  %42 = call i32 %35(ptr noundef %40, i32 noundef %41)
  store i32 %42, ptr %6, align 4
  %43 = load i32, ptr %6, align 4
  %44 = icmp slt i32 %43, 0
  br i1 %44, label %45, label %65

45:                                               ; preds = %34
  %46 = load i32, ptr %6, align 4
  %47 = icmp ne i32 %46, -11
  br i1 %47, label %48, label %65

48:                                               ; preds = %45
  call void @llvm.lifetime.start.p0(i64 4, ptr %7) #7
  %49 = load ptr, ptr @ALSA_snd_pcm_recover, align 8
  %50 = load ptr, ptr %3, align 8
  %51 = getelementptr inbounds nuw %struct.SDL_AudioDevice, ptr %50, i32 0, i32 28
  %52 = load ptr, ptr %51, align 8
  %53 = getelementptr inbounds nuw %struct.SDL_PrivateAudioData, ptr %52, i32 0, i32 0
  %54 = load ptr, ptr %53, align 8
  %55 = load i32, ptr %6, align 4
  %56 = call i32 %49(ptr noundef %54, i32 noundef %55, i32 noundef 0)
  store i32 %56, ptr %7, align 4
  %57 = load i32, ptr %7, align 4
  %58 = icmp slt i32 %57, 0
  br i1 %58, label %59, label %63

59:                                               ; preds = %48
  %60 = load ptr, ptr @ALSA_snd_strerror, align 8
  %61 = load i32, ptr %6, align 4
  %62 = call ptr %60(i32 noundef %61)
  call void (i32, ptr, ...) @SDL_LogError_REAL(i32 noundef 4, ptr noundef @.str.118, ptr noundef %62)
  store i1 false, ptr %2, align 1
  store i32 1, ptr %8, align 4
  br label %64

63:                                               ; preds = %48
  store i32 2, ptr %8, align 4
  br label %64, !llvm.loop !5

64:                                               ; preds = %63, %59
  call void @llvm.lifetime.end.p0(i64 4, ptr %7) #7
  br label %70

65:                                               ; preds = %45, %34
  %66 = load i32, ptr %6, align 4
  %67 = icmp sgt i32 %66, 0
  br i1 %67, label %68, label %69

68:                                               ; preds = %65
  store i32 3, ptr %8, align 4
  br label %70

69:                                               ; preds = %65
  store i32 0, ptr %8, align 4
  br label %70

70:                                               ; preds = %69, %68, %64
  call void @llvm.lifetime.end.p0(i64 4, ptr %6) #7
  %71 = load i32, ptr %8, align 4
  switch i32 %71, label %74 [
    i32 0, label %72
    i32 2, label %28
    i32 3, label %73
  ]

72:                                               ; preds = %70
  br label %28, !llvm.loop !5

73:                                               ; preds = %70, %28
  store i1 true, ptr %2, align 1
  store i32 1, ptr %8, align 4
  br label %74

74:                                               ; preds = %73, %70
  call void @llvm.lifetime.end.p0(i64 4, ptr %5) #7
  call void @llvm.lifetime.end.p0(i64 4, ptr %4) #7
  %75 = load i1, ptr %2, align 1
  ret i1 %75
}