; Function Attrs: nounwind uwtable
define internal noundef zeroext i1 @ALSA_WaitDevice(ptr noundef %0) #0 {
  %2 = getelementptr inbounds nuw i8, ptr %0, i64 132
  %3 = load i32, ptr %2, align 4
  %4 = sext i32 %3 to i64
  %5 = mul nsw i64 %4, 1000
  %6 = getelementptr inbounds nuw i8, ptr %0, i64 104
  %7 = load i32, ptr %6, align 8
  %8 = sext i32 %7 to i64
  %9 = udiv i64 %5, %8
  %10 = trunc i64 %9 to i32
  %11 = tail call i32 @llvm.smax.i32(i32 %10, i32 10)
  %12 = getelementptr inbounds nuw i8, ptr %0, i64 140
  %13 = tail call i32 @SDL_GetAtomicInt_REAL(ptr noundef nonnull %12) #8
  %.not22 = icmp eq i32 %13, 0
  br i1 %.not22, label %.lr.ph, label %.thread

.lr.ph:                                           ; preds = %1
  %14 = getelementptr inbounds nuw i8, ptr %0, i64 200
  br label %15

15:                                               ; preds = %.lr.ph, %32
  %16 = load ptr, ptr @ALSA_snd_pcm_wait, align 8
  %17 = load ptr, ptr %14, align 8
  %18 = load ptr, ptr %17, align 8
  %19 = tail call i32 %16(ptr noundef %18, i32 noundef %11) #8
  %20 = icmp slt i32 %19, 0
  %21 = icmp ne i32 %19, -11
  %or.cond = and i1 %20, %21
  br i1 %or.cond, label %22, label %30

22:                                               ; preds = %15
  %23 = load ptr, ptr @ALSA_snd_pcm_recover, align 8
  %24 = load ptr, ptr %14, align 8
  %25 = load ptr, ptr %24, align 8
  %26 = tail call i32 %23(ptr noundef %25, i32 noundef %19, i32 noundef 0) #8
  %27 = icmp slt i32 %26, 0
  br i1 %27, label %.thread20, label %32, !llvm.loop !8

.thread20:                                        ; preds = %22
  %28 = load ptr, ptr @ALSA_snd_strerror, align 8
  %29 = tail call ptr %28(i32 noundef %19) #8
  tail call void (i32, ptr, ...) @SDL_LogError_REAL(i32 noundef 4, ptr noundef nonnull @.str.118, ptr noundef %29) #8
  br label %.thread

30:                                               ; preds = %15
  %31 = icmp sgt i32 %19, 0
  br i1 %31, label %.thread, label %32

32:                                               ; preds = %30, %22
  %33 = tail call i32 @SDL_GetAtomicInt_REAL(ptr noundef nonnull %12) #8
  %.not = icmp eq i32 %33, 0
  br i1 %.not, label %15, label %.thread

.thread:                                          ; preds = %32, %30, %1, %.thread20
  %.3 = phi i1 [ false, %.thread20 ], [ true, %1 ], [ true, %30 ], [ true, %32 ]
  ret i1 %.3
}